; Function Attrs: nounwind sspstrong uwtable
define internal range(i64 0, 4294967296) i64 @msix_table_mmio_read(ptr noundef readonly captures(none) %opaque, i64 noundef %addr, i32 noundef %size) #0 {
entry:
  %conv = zext i32 %size to i64
  %add = add i64 %addr, %conv
  %msix_entries_nr = getelementptr inbounds nuw i8, ptr %opaque, i64 1268
  %0 = load i32, ptr %msix_entries_nr, align 4
  %mul = shl i32 %0, 4
  %conv1 = sext i32 %mul to i64
  %cmp.not = icmp ugt i64 %add, %conv1
  br i1 %cmp.not, label %if.else, label %if.end

if.else:                                          ; preds = %entry
  tail call void @__assert_fail(ptr noundef nonnull @.str.14, ptr noundef nonnull @.str.1, i32 noundef 216, ptr noundef nonnull @__PRETTY_FUNCTION__.msix_table_mmio_read) #15
  unreachable

if.end:                                           ; preds = %entry
  %msix_table = getelementptr inbounds nuw i8, ptr %opaque, i64 1272
  %1 = load ptr, ptr %msix_table, align 8
  %add.ptr = getelementptr i8, ptr %1, i64 %addr
  %add.ptr.val = load i32, ptr %add.ptr, align 1
  %conv3 = zext i32 %add.ptr.val to i64
  ret i64 %conv3
}